target datalayout = "e-m:e-p270:32:32-p271:32:32-p272:64:64-i64:64-i128:128-f80:128-n8:16:32:64-S128"
target triple = "x86_64-pc-linux-gnu"

%"class.std::__cxx11::basic_string" = type { %"struct.std::__cxx11::basic_string<char>::_Alloc_hider", i64, %union.anon }
%"struct.std::__cxx11::basic_string<char>::_Alloc_hider" = type { ptr }
%union.anon = type { i64, [8 x i8] }
%"class.logging::CheckOpResult" = type { ptr }
%"class.logging::LogMessage" = type <{ i32, [4 x i8], %"class.std::__cxx11::basic_ostringstream", i64, ptr, i32, [4 x i8] }>
%"class.std::__cxx11::basic_ostringstream" = type { %"class.std::basic_ostream.base", %"class.std::__cxx11::basic_stringbuf", %"class.std::basic_ios" }
%"class.std::basic_ostream.base" = type { ptr }
%"class.std::__cxx11::basic_stringbuf" = type { %"class.std::basic_streambuf", i32, %"class.std::__cxx11::basic_string" }
%"class.std::basic_streambuf" = type { ptr, ptr, ptr, ptr, ptr, ptr, ptr, %"class.std::locale" }
%"class.std::locale" = type { ptr }
%"class.std::basic_ios" = type { %"class.std::ios_base", ptr, i8, i8, ptr, ptr, ptr, ptr }
%"class.std::ios_base" = type { ptr, i64, i64, i32, i32, i32, ptr, %"struct.std::ios_base::_Words", [8 x %"struct.std::ios_base::_Words"], i32, ptr, %"class.std::locale" }
%"struct.std::ios_base::_Words" = type { ptr, i64 }

@.str.12 = private unnamed_addr constant [135 x i8] c"generated/home/dtcxzyw/WorkSpace/Projects/compilers/llvm-opt-benchmark/bench/libquic/libquic/src/base/process/process_metrics_linux.cc\00", align 1
@.str.13 = private unnamed_addr constant [6 x i8] c"%d %d\00", align 1

; Function Attrs: mustprogress nounwind uwtable
define available_externally noundef ptr @_ZNKSt7__cxx1112basic_stringIcSt11char_traitsIcESaIcEE7_M_dataEv(ptr noundef nonnull align 8 dereferenceable(32) %0) #1 align 2 {
  %2 = alloca ptr, align 8
  store ptr %0, ptr %2, align 8, !tbaa !15
  %3 = load ptr, ptr %2, align 8
  %4 = getelementptr inbounds nuw %"class.std::__cxx11::basic_string", ptr %3, i32 0, i32 0
  %5 = getelementptr inbounds nuw %"struct.std::__cxx11::basic_string<char>::_Alloc_hider", ptr %4, i32 0, i32 0
  %6 = load ptr, ptr %5, align 8, !tbaa !170
  ret ptr %6
}

; Function Attrs: mustprogress nounwind uwtable
define available_externally noundef i64 @_ZNKSt7__cxx1112basic_stringIcSt11char_traitsIcESaIcEE4sizeEv(ptr noundef nonnull align 8 dereferenceable(32) %0) #1 align 2 {
  %2 = alloca ptr, align 8
  store ptr %0, ptr %2, align 8, !tbaa !15
  %3 = load ptr, ptr %2, align 8
  %4 = getelementptr inbounds nuw %"class.std::__cxx11::basic_string", ptr %3, i32 0, i32 1
  %5 = load i64, ptr %4, align 8, !tbaa !93
  ret i64 %5
}

; Function Attrs: mustprogress nounwind uwtable
define available_externally noundef ptr @_ZNKSt7__cxx1112basic_stringIcSt11char_traitsIcESaIcEE4dataEv(ptr noundef nonnull align 8 dereferenceable(32) %0) #1 align 2 {
  %2 = alloca ptr, align 8
  store ptr %0, ptr %2, align 8, !tbaa !15
  %3 = load ptr, ptr %2, align 8
  %4 = call noundef ptr @_ZNKSt7__cxx1112basic_stringIcSt11char_traitsIcESaIcEE7_M_dataEv(ptr noundef nonnull align 8 dereferenceable(32) %3)
  ret ptr %4
}

; Function Attrs: mustprogress nounwind uwtable
define linkonce_odr noundef nonnull align 8 dereferenceable(8) ptr @_ZN7logging10LogMessage6streamEv(ptr noundef nonnull align 8 dereferenceable(404) %0) #1 comdat align 2 {
  %2 = alloca ptr, align 8
  store ptr %0, ptr %2, align 8, !tbaa !114
  %3 = load ptr, ptr %2, align 8
  %4 = getelementptr inbounds nuw %"class.logging::LogMessage", ptr %3, i32 0, i32 2
  ret ptr %4
}

; Function Attrs: mustprogress nounwind uwtable
define linkonce_odr noundef ptr @_ZN7logging13CheckOpResult7messageB5cxx11Ev(ptr noundef nonnull align 8 dereferenceable(8) %0) #1 comdat align 2 {
  %2 = alloca ptr, align 8
  store ptr %0, ptr %2, align 8, !tbaa !110
  %3 = load ptr, ptr %2, align 8
  %4 = getelementptr inbounds nuw %"class.logging::CheckOpResult", ptr %3, i32 0, i32 0
  %5 = load ptr, ptr %4, align 8, !tbaa !112
  ret ptr %5
}

; Function Attrs: mustprogress nounwind uwtable
define linkonce_odr noundef zeroext i1 @_ZNK7logging13CheckOpResultcvbEv(ptr noundef nonnull align 8 dereferenceable(8) %0) #1 comdat align 2 {
  %2 = alloca ptr, align 8
  store ptr %0, ptr %2, align 8, !tbaa !110
  %3 = load ptr, ptr %2, align 8
  %4 = getelementptr inbounds nuw %"class.logging::CheckOpResult", ptr %3, i32 0, i32 0
  %5 = load ptr, ptr %4, align 8, !tbaa !112
  %6 = icmp ne ptr %5, null
  %7 = xor i1 %6, true
  ret i1 %7
}

; Function Attrs: mustprogress nounwind uwtable
define linkonce_odr void @_ZN7logging13CheckOpResultC2EPNSt7__cxx1112basic_stringIcSt11char_traitsIcESaIcEEE(ptr noundef nonnull align 8 dereferenceable(8) %0, ptr noundef %1) unnamed_addr #1 comdat align 2 {
  %3 = alloca ptr, align 8
  %4 = alloca ptr, align 8
  store ptr %0, ptr %3, align 8, !tbaa !110
  store ptr %1, ptr %4, align 8, !tbaa !15
  %5 = load ptr, ptr %3, align 8
  %6 = getelementptr inbounds nuw %"class.logging::CheckOpResult", ptr %5, i32 0, i32 0
  %7 = load ptr, ptr %4, align 8, !tbaa !15
  store ptr %7, ptr %6, align 8, !tbaa !112
  ret void
}

; Function Attrs: mustprogress nounwind uwtable
define available_externally noundef i64 @_ZNKSt7__cxx1112basic_stringIcSt11char_traitsIcESaIcEE12find_last_ofEcm(ptr noundef nonnull align 8 dereferenceable(32) %0, i8 noundef signext %1, i64 noundef %2) #1 align 2 {
  %4 = alloca ptr, align 8
  %5 = alloca i8, align 1
  %6 = alloca i64, align 8
  store ptr %0, ptr %4, align 8, !tbaa !15
  store i8 %1, ptr %5, align 1, !tbaa !109
  store i64 %2, ptr %6, align 8, !tbaa !17
  %7 = load ptr, ptr %4, align 8
  %8 = load i8, ptr %5, align 1, !tbaa !109
  %9 = load i64, ptr %6, align 8, !tbaa !17
  %10 = call noundef i64 @_ZNKSt7__cxx1112basic_stringIcSt11char_traitsIcESaIcEE5rfindEcm(ptr noundef nonnull align 8 dereferenceable(32) %7, i8 noundef signext %8, i64 noundef %9) #18
  ret i64 %10
}

; Function Attrs: mustprogress nounwind uwtable
define available_externally noundef zeroext i1 @_ZNKSt7__cxx1112basic_stringIcSt11char_traitsIcESaIcEE5emptyEv(ptr noundef nonnull align 8 dereferenceable(32) %0) #1 align 2 {
  %2 = alloca ptr, align 8
  store ptr %0, ptr %2, align 8, !tbaa !15
  %3 = load ptr, ptr %2, align 8
  %4 = call noundef i64 @_ZNKSt7__cxx1112basic_stringIcSt11char_traitsIcESaIcEE4sizeEv(ptr noundef nonnull align 8 dereferenceable(32) %3) #18
  %5 = icmp eq i64 %4, 0
  ret i1 %5
}

; Function Attrs: mustprogress uwtable
define noundef i32 @_ZN4base16ParseProcStatCPUERKNSt7__cxx1112basic_stringIcSt11char_traitsIcESaIcEEE(ptr noundef nonnull align 8 dereferenceable(32) %0) #0 personality ptr @__gxx_personality_v0 {
  %2 = alloca i32, align 4
  %3 = alloca ptr, align 8
  %4 = alloca i64, align 8
  %5 = alloca i32, align 4
  %6 = alloca i32, align 4
  %7 = alloca i64, align 8
  %8 = alloca %"class.logging::CheckOpResult", align 8
  %9 = alloca %"class.logging::LogMessage", align 8
  %10 = alloca ptr, align 8
  %11 = alloca i32, align 4
  %12 = alloca i32, align 4
  %13 = alloca i32, align 4
  store ptr %0, ptr %3, align 8, !tbaa !15
  %14 = load ptr, ptr %3, align 8, !tbaa !15
  %15 = call noundef zeroext i1 @_ZNKSt7__cxx1112basic_stringIcSt11char_traitsIcESaIcEE5emptyEv(ptr noundef nonnull align 8 dereferenceable(32) %14) #18
  br i1 %15, label %16, label %17

16:                                               ; preds = %1
  store i32 -1, ptr %2, align 4
  br label %63

17:                                               ; preds = %1
  call void @llvm.lifetime.start.p0(i64 8, ptr %4) #18
  %18 = load ptr, ptr %3, align 8, !tbaa !15
  %19 = call noundef i64 @_ZNKSt7__cxx1112basic_stringIcSt11char_traitsIcESaIcEE12find_last_ofEcm(ptr noundef nonnull align 8 dereferenceable(32) %18, i8 noundef signext 41, i64 noundef -1) #18
  store i64 %19, ptr %4, align 8, !tbaa !17
  %20 = load i64, ptr %4, align 8, !tbaa !17
  %21 = icmp eq i64 %20, -1
  br i1 %21, label %22, label %23

22:                                               ; preds = %17
  store i32 -1, ptr %2, align 4
  store i32 1, ptr %5, align 4
  br label %62

23:                                               ; preds = %17
  call void @llvm.lifetime.start.p0(i64 4, ptr %6) #18
  store i32 12, ptr %6, align 4, !tbaa !3
  call void @llvm.lifetime.start.p0(i64 8, ptr %7) #18
  %24 = load i64, ptr %4, align 8, !tbaa !17
  store i64 %24, ptr %7, align 8, !tbaa !17
  br label %25

25:                                               ; preds = %59, %23
  %26 = load ptr, ptr %3, align 8, !tbaa !15
  %27 = load i64, ptr %7, align 8, !tbaa !17
  %28 = add i64 %27, 1
  %29 = call noundef i64 @_ZNKSt7__cxx1112basic_stringIcSt11char_traitsIcESaIcEE4findEcm(ptr noundef nonnull align 8 dereferenceable(32) %26, i8 noundef signext 32, i64 noundef %28) #18
  store i64 %29, ptr %7, align 8, !tbaa !17
  %30 = icmp ne i64 %29, -1
  br i1 %30, label %31, label %60

31:                                               ; preds = %25
  call void @llvm.lifetime.start.p0(i64 8, ptr %8) #18
  call void @_ZN7logging13CheckOpResultC2EPNSt7__cxx1112basic_stringIcSt11char_traitsIcESaIcEEE(ptr noundef nonnull align 8 dereferenceable(8) %8, ptr noundef null)
  %32 = call noundef zeroext i1 @_ZNK7logging13CheckOpResultcvbEv(ptr noundef nonnull align 8 dereferenceable(8) %8)
  br i1 %32, label %33, label %34

33:                                               ; preds = %31
  br label %42

34:                                               ; preds = %31
  call void @llvm.lifetime.start.p0(i64 408, ptr %9) #18
  %35 = call noundef ptr @_ZN7logging13CheckOpResult7messageB5cxx11Ev(ptr noundef nonnull align 8 dereferenceable(8) %8)
  call void @_ZN7logging10LogMessageC1EPKciiPNSt7__cxx1112basic_stringIcSt11char_traitsIcESaIcEEE(ptr noundef nonnull align 8 dereferenceable(404) %9, ptr noundef @.str.12, i32 noundef 459, i32 noundef 0, ptr noundef %35)
  %36 = invoke noundef nonnull align 8 dereferenceable(8) ptr @_ZN7logging10LogMessage6streamEv(ptr noundef nonnull align 8 dereferenceable(404) %9)
          to label %37 unwind label %38

37:                                               ; preds = %34
  call void @_ZN7logging10LogMessageD1Ev(ptr noundef nonnull align 8 dereferenceable(404) %9) #18
  call void @llvm.lifetime.end.p0(i64 408, ptr %9) #18
  br label %42

38:                                               ; preds = %34
  %39 = landingpad { ptr, i32 }
          cleanup
  %40 = extractvalue { ptr, i32 } %39, 0
  store ptr %40, ptr %10, align 8
  %41 = extractvalue { ptr, i32 } %39, 1
  store i32 %41, ptr %11, align 4
  call void @_ZN7logging10LogMessageD1Ev(ptr noundef nonnull align 8 dereferenceable(404) %9) #18
  call void @llvm.lifetime.end.p0(i64 408, ptr %9) #18
  call void @llvm.lifetime.end.p0(i64 8, ptr %8) #18
  call void @llvm.lifetime.end.p0(i64 8, ptr %7) #18
  call void @llvm.lifetime.end.p0(i64 4, ptr %6) #18
  call void @llvm.lifetime.end.p0(i64 8, ptr %4) #18
  br label %65

42:                                               ; preds = %37, %33
  call void @llvm.lifetime.end.p0(i64 8, ptr %8) #18
  %43 = load i32, ptr %6, align 4, !tbaa !3
  %44 = add nsw i32 %43, -1
  store i32 %44, ptr %6, align 4, !tbaa !3
  %45 = icmp eq i32 %44, 0
  br i1 %45, label %46, label %59

46:                                               ; preds = %42
  call void @llvm.lifetime.start.p0(i64 4, ptr %12) #18
  store i32 0, ptr %12, align 4, !tbaa !3
  call void @llvm.lifetime.start.p0(i64 4, ptr %13) #18
  store i32 0, ptr %13, align 4, !tbaa !3
  %47 = load ptr, ptr %3, align 8, !tbaa !15
  %48 = call noundef ptr @_ZNKSt7__cxx1112basic_stringIcSt11char_traitsIcESaIcEE4dataEv(ptr noundef nonnull align 8 dereferenceable(32) %47) #18
  %49 = load i64, ptr %7, align 8, !tbaa !17
  %50 = getelementptr inbounds nuw i8, ptr %48, i64 %49
  %51 = call i32 (ptr, ptr, ...) @__isoc99_sscanf(ptr noundef %50, ptr noundef @.str.13, ptr noundef %12, ptr noundef %13) #18
  %52 = icmp ne i32 %51, 2
  br i1 %52, label %53, label %54

53:                                               ; preds = %46
  store i32 -1, ptr %2, align 4
  store i32 1, ptr %5, align 4
  br label %58

54:                                               ; preds = %46
  %55 = load i32, ptr %12, align 4, !tbaa !3
  %56 = load i32, ptr %13, align 4, !tbaa !3
  %57 = add nsw i32 %55, %56
  store i32 %57, ptr %2, align 4
  store i32 1, ptr %5, align 4
  br label %58

58:                                               ; preds = %54, %53
  call void @llvm.lifetime.end.p0(i64 4, ptr %13) #18
  call void @llvm.lifetime.end.p0(i64 4, ptr %12) #18
  br label %61

59:                                               ; preds = %42
  br label %25, !llvm.loop !108

60:                                               ; preds = %25
  store i32 -1, ptr %2, align 4
  store i32 1, ptr %5, align 4
  br label %61

61:                                               ; preds = %60, %58
  call void @llvm.lifetime.end.p0(i64 8, ptr %7) #18
  call void @llvm.lifetime.end.p0(i64 4, ptr %6) #18
  br label %62

62:                                               ; preds = %61, %22
  call void @llvm.lifetime.end.p0(i64 8, ptr %4) #18
  br label %63

63:                                               ; preds = %62, %16
  %64 = load i32, ptr %2, align 4
  ret i32 %64

65:                                               ; preds = %38
  %66 = load ptr, ptr %10, align 8
  %67 = load i32, ptr %11, align 4
  %68 = insertvalue { ptr, i32 } poison, ptr %66, 0
  %69 = insertvalue { ptr, i32 } %68, i32 %67, 1
  resume { ptr, i32 } %69
}