; Function Attrs: mustprogress nounwind uwtable
define noundef i32 @_ZN4base16ParseProcStatCPUERKNSt7__cxx1112basic_stringIcSt11char_traitsIcESaIcEEE(ptr noundef nonnull align 8 dereferenceable(32) %0) local_unnamed_addr #8 personality ptr @__gxx_personality_v0 {
  %2 = alloca i32, align 4
  %3 = alloca i32, align 4
  %4 = getelementptr inbounds nuw i8, ptr %0, i64 8
  %5 = load i64, ptr %4, align 8, !tbaa !20
  %6 = icmp eq i64 %5, 0
  br i1 %6, label %.loopexit, label %7

7:                                                ; preds = %1
  %8 = tail call noundef i64 @_ZNKSt7__cxx1112basic_stringIcSt11char_traitsIcESaIcEE5rfindEcm(ptr noundef nonnull align 8 dereferenceable(32) %0, i8 noundef signext 41, i64 noundef -1) #25
  %9 = icmp eq i64 %8, -1
  br i1 %9, label %.loopexit, label %.preheader

.preheader:                                       ; preds = %7, %12
  %.09 = phi i32 [ %13, %12 ], [ 12, %7 ]
  %.0 = phi i64 [ %11, %12 ], [ %8, %7 ]
  %10 = add nuw i64 %.0, 1
  %11 = tail call noundef i64 @_ZNKSt7__cxx1112basic_stringIcSt11char_traitsIcESaIcEE4findEcm(ptr noundef nonnull align 8 dereferenceable(32) %0, i8 noundef signext 32, i64 noundef %10) #25
  %.not = icmp eq i64 %11, -1
  br i1 %.not, label %.loopexit, label %12

12:                                               ; preds = %.preheader
  %13 = add nsw i32 %.09, -1
  %14 = icmp eq i32 %13, 0
  br i1 %14, label %15, label %.preheader, !llvm.loop !47

15:                                               ; preds = %12
  call void @llvm.lifetime.start.p0(i64 4, ptr nonnull %2) #25
  store i32 0, ptr %2, align 4, !tbaa !43
  call void @llvm.lifetime.start.p0(i64 4, ptr nonnull %3) #25
  store i32 0, ptr %3, align 4, !tbaa !43
  %16 = load ptr, ptr %0, align 8, !tbaa !23
  %17 = getelementptr inbounds nuw i8, ptr %16, i64 %11
  %18 = call i32 (ptr, ptr, ...) @__isoc99_sscanf(ptr noundef %17, ptr noundef nonnull @.str.13, ptr noundef nonnull %2, ptr noundef nonnull %3) #25
  %.not14 = icmp eq i32 %18, 2
  %19 = load i32, ptr %2, align 4
  %20 = load i32, ptr %3, align 4
  %21 = add nsw i32 %20, %19
  %.2 = select i1 %.not14, i32 %21, i32 -1
  call void @llvm.lifetime.end.p0(i64 4, ptr nonnull %3) #25
  call void @llvm.lifetime.end.p0(i64 4, ptr nonnull %2) #25
  br label %.loopexit

.loopexit:                                        ; preds = %.preheader, %7, %15, %1
  %.010 = phi i32 [ -1, %1 ], [ -1, %7 ], [ %.2, %15 ], [ -1, %.preheader ]
  ret i32 %.010
}